; Function Attrs: nofree norecurse nosync nounwind memory(argmem: read) uwtable
define i32 @Kit_TruthXorCount(ptr noundef readonly captures(none) %0, ptr noundef readonly captures(none) %1, i32 noundef %2) local_unnamed_addr #3 {
  %4 = icmp slt i32 %2, 6
  %5 = add nsw i32 %2, -5
  %6 = shl nuw i32 1, %5
  %7 = select i1 %4, i32 1, i32 %6
  %8 = icmp sgt i32 %7, 0
  br i1 %8, label %.lr.ph.preheader, label %._crit_edge

.lr.ph.preheader:                                 ; preds = %3
  %wide.trip.count = zext nneg i32 %7 to i64
  br label %.lr.ph

.lr.ph:                                           ; preds = %.lr.ph.preheader, %.lr.ph
  %indvars.iv = phi i64 [ 0, %.lr.ph.preheader ], [ %indvars.iv.next, %.lr.ph ]
  %.011 = phi i32 [ 0, %.lr.ph.preheader ], [ %33, %.lr.ph ]
  %9 = getelementptr inbounds nuw i32, ptr %0, i64 %indvars.iv
  %10 = load i32, ptr %9, align 4, !tbaa !3
  %11 = getelementptr inbounds nuw i32, ptr %1, i64 %indvars.iv
  %12 = load i32, ptr %11, align 4, !tbaa !3
  %13 = xor i32 %12, %10
  %14 = and i32 %13, 1431655765
  %15 = lshr i32 %13, 1
  %16 = and i32 %15, 1431655765
  %17 = add nuw i32 %16, %14
  %18 = and i32 %17, 858993459
  %19 = lshr i32 %17, 2
  %20 = and i32 %19, 858993459
  %21 = add nuw nsw i32 %20, %18
  %22 = and i32 %21, 117901063
  %23 = lshr i32 %21, 4
  %24 = and i32 %23, 117901063
  %25 = add nuw nsw i32 %24, %22
  %26 = and i32 %25, 983055
  %27 = lshr i32 %25, 8
  %28 = and i32 %27, 983055
  %29 = add nuw nsw i32 %28, %26
  %30 = and i32 %29, 31
  %31 = lshr i32 %29, 16
  %32 = add nuw nsw i32 %31, %.011
  %33 = add nuw nsw i32 %32, %30
  %indvars.iv.next = add nuw nsw i64 %indvars.iv, 1
  %exitcond.not = icmp eq i64 %indvars.iv.next, %wide.trip.count
  br i1 %exitcond.not, label %._crit_edge, label %.lr.ph, !llvm.loop !126

._crit_edge:                                      ; preds = %.lr.ph, %3
  %.0.lcssa = phi i32 [ 0, %3 ], [ %33, %.lr.ph ]
  ret i32 %.0.lcssa
}